target datalayout = "e-m:e-p270:32:32-p271:32:32-p272:64:64-i64:64-i128:128-f80:128-n8:16:32:64-S128"
target triple = "x86_64-pc-linux-gnu"

%union.ufmt_args = type { i64 }
%struct.u_scanf_spec_info = type { i32, i16, i16, i8, i8, i8, i8, i8, i8 }
%struct.UFILE = type { ptr, ptr, ptr, %struct.u_localized_string, [1024 x i16], i8, i32 }
%struct.u_localized_string = type { ptr, ptr, ptr, %struct.ULocaleBundle }
%struct.ULocaleBundle = type { ptr, [5 x ptr], i8 }

; Function Attrs: inlinehint mustprogress nounwind uwtable
define internal noundef signext i8 @_ZL9U_FAILURE10UErrorCode(i32 noundef %0) #4 {
  %2 = alloca i32, align 4
  store i32 %0, ptr %2, align 4, !tbaa !54
  %3 = load i32, ptr %2, align 4, !tbaa !54
  %4 = icmp sgt i32 %3, 0
  %5 = zext i1 %4 to i8
  ret i8 %5
}

; Function Attrs: mustprogress uwtable
define internal noundef i32 @_ZL23u_scanf_skip_leading_wsP5UFILEDs(ptr noundef %0, i16 noundef zeroext %1) #0 {
  %3 = alloca ptr, align 8
  %4 = alloca i16, align 2
  %5 = alloca i16, align 2
  %6 = alloca i32, align 4
  %7 = alloca i8, align 1
  store ptr %0, ptr %3, align 8, !tbaa !3
  store i16 %1, ptr %4, align 2, !tbaa !14
  call void @llvm.lifetime.start.p0(i64 2, ptr %5) #5
  call void @llvm.lifetime.start.p0(i64 4, ptr %6) #5
  store i32 0, ptr %6, align 4, !tbaa !12
  call void @llvm.lifetime.start.p0(i64 1, ptr %7) #5
  br label %8

8:                                                ; preds = %28, %2
  %9 = load ptr, ptr %3, align 8, !tbaa !3
  %10 = call signext i8 @ufile_getch_77(ptr noundef %9, ptr noundef %5)
  store i8 %10, ptr %7, align 1, !tbaa !28
  %11 = sext i8 %10 to i32
  %12 = icmp eq i32 %11, 1
  br i1 %12, label %13, label %26

13:                                               ; preds = %8
  %14 = load i16, ptr %5, align 2, !tbaa !14
  %15 = zext i16 %14 to i32
  %16 = load i16, ptr %4, align 2, !tbaa !14
  %17 = zext i16 %16 to i32
  %18 = icmp eq i32 %15, %17
  br i1 %18, label %24, label %19

19:                                               ; preds = %13
  %20 = load i16, ptr %5, align 2, !tbaa !14
  %21 = zext i16 %20 to i32
  %22 = call signext i8 @u_isWhitespace_77(i32 noundef %21)
  %23 = icmp ne i8 %22, 0
  br label %24

24:                                               ; preds = %19, %13
  %25 = phi i1 [ true, %13 ], [ %23, %19 ]
  br label %26

26:                                               ; preds = %24, %8
  %27 = phi i1 [ false, %8 ], [ %25, %24 ]
  br i1 %27, label %28, label %31

28:                                               ; preds = %26
  %29 = load i32, ptr %6, align 4, !tbaa !12
  %30 = add nsw i32 %29, 1
  store i32 %30, ptr %6, align 4, !tbaa !12
  br label %8, !llvm.loop !82

31:                                               ; preds = %26
  %32 = load i8, ptr %7, align 1, !tbaa !28
  %33 = icmp ne i8 %32, 0
  br i1 %33, label %34, label %39

34:                                               ; preds = %31
  %35 = load i16, ptr %5, align 2, !tbaa !14
  %36 = zext i16 %35 to i32
  %37 = load ptr, ptr %3, align 8, !tbaa !3
  %38 = call i32 @u_fungetc_77(i32 noundef %36, ptr noundef %37)
  br label %39

39:                                               ; preds = %34, %31
  %40 = load i32, ptr %6, align 4, !tbaa !12
  call void @llvm.lifetime.end.p0(i64 1, ptr %7) #5
  call void @llvm.lifetime.end.p0(i64 4, ptr %6) #5
  call void @llvm.lifetime.end.p0(i64 2, ptr %5) #5
  ret i32 %40
}

; Function Attrs: mustprogress uwtable
define internal noundef i32 @_ZL23u_scanf_integer_handlerP5UFILEP17u_scanf_spec_infoP9ufmt_argsPKDsPiS7_(ptr noundef %0, ptr noundef %1, ptr noundef %2, ptr noundef %3, ptr noundef %4, ptr noundef %5) #0 {
  %7 = alloca i32, align 4
  %8 = alloca ptr, align 8
  %9 = alloca ptr, align 8
  %10 = alloca ptr, align 8
  %11 = alloca ptr, align 8
  %12 = alloca ptr, align 8
  %13 = alloca ptr, align 8
  %14 = alloca i32, align 4
  %15 = alloca ptr, align 8
  %16 = alloca ptr, align 8
  %17 = alloca ptr, align 8
  %18 = alloca i32, align 4
  %19 = alloca i32, align 4
  %20 = alloca i32, align 4
  %21 = alloca i32, align 4
  %22 = alloca i64, align 8
  %23 = alloca i32, align 4
  store ptr %0, ptr %8, align 8, !tbaa !3
  store ptr %1, ptr %9, align 8, !tbaa !35
  store ptr %2, ptr %10, align 8, !tbaa !50
  store ptr %3, ptr %11, align 8, !tbaa !8
  store ptr %4, ptr %12, align 8, !tbaa !52
  store ptr %5, ptr %13, align 8, !tbaa !52
  call void @llvm.lifetime.start.p0(i64 4, ptr %14) #5
  call void @llvm.lifetime.start.p0(i64 8, ptr %15) #5
  %24 = load ptr, ptr %10, align 8, !tbaa !50
  %25 = getelementptr inbounds %union.ufmt_args, ptr %24, i64 0
  %26 = load ptr, ptr %25, align 8, !tbaa !28
  store ptr %26, ptr %15, align 8, !tbaa !30
  call void @llvm.lifetime.start.p0(i64 8, ptr %16) #5
  call void @llvm.lifetime.start.p0(i64 8, ptr %17) #5
  call void @llvm.lifetime.start.p0(i64 4, ptr %18) #5
  store i32 0, ptr %18, align 4, !tbaa !12
  call void @llvm.lifetime.start.p0(i64 4, ptr %19) #5
  call void @llvm.lifetime.start.p0(i64 4, ptr %20) #5
  store i32 0, ptr %20, align 4, !tbaa !12
  call void @llvm.lifetime.start.p0(i64 4, ptr %21) #5
  store i32 0, ptr %21, align 4, !tbaa !54
  call void @llvm.lifetime.start.p0(i64 8, ptr %22) #5
  %27 = load ptr, ptr %8, align 8, !tbaa !3
  %28 = load ptr, ptr %9, align 8, !tbaa !35
  %29 = getelementptr inbounds nuw %struct.u_scanf_spec_info, ptr %28, i32 0, i32 2
  %30 = load i16, ptr %29, align 2, !tbaa !40
  %31 = call noundef i32 @_ZL23u_scanf_skip_leading_wsP5UFILEDs(ptr noundef %27, i16 noundef zeroext %30)
  store i32 %31, ptr %19, align 4, !tbaa !12
  %32 = load ptr, ptr %8, align 8, !tbaa !3
  call void @_Z26ufile_fill_uchar_buffer_77P5UFILE(ptr noundef %32)
  %33 = load ptr, ptr %8, align 8, !tbaa !3
  %34 = getelementptr inbounds nuw %struct.UFILE, ptr %33, i32 0, i32 3
  %35 = getelementptr inbounds nuw %struct.u_localized_string, ptr %34, i32 0, i32 1
  %36 = load ptr, ptr %35, align 8, !tbaa !56
  %37 = load ptr, ptr %8, align 8, !tbaa !3
  %38 = getelementptr inbounds nuw %struct.UFILE, ptr %37, i32 0, i32 3
  %39 = getelementptr inbounds nuw %struct.u_localized_string, ptr %38, i32 0, i32 0
  %40 = load ptr, ptr %39, align 8, !tbaa !63
  %41 = ptrtoint ptr %36 to i64
  %42 = ptrtoint ptr %40 to i64
  %43 = sub i64 %41, %42
  %44 = sdiv exact i64 %43, 2
  %45 = trunc i64 %44 to i32
  store i32 %45, ptr %14, align 4, !tbaa !12
  %46 = load ptr, ptr %9, align 8, !tbaa !35
  %47 = getelementptr inbounds nuw %struct.u_scanf_spec_info, ptr %46, i32 0, i32 0
  %48 = load i32, ptr %47, align 4, !tbaa !38
  %49 = icmp ne i32 %48, -1
  br i1 %49, label %50, label %64

50:                                               ; preds = %6
  %51 = load i32, ptr %14, align 4, !tbaa !12
  %52 = load ptr, ptr %9, align 8, !tbaa !35
  %53 = getelementptr inbounds nuw %struct.u_scanf_spec_info, ptr %52, i32 0, i32 0
  %54 = load i32, ptr %53, align 4, !tbaa !38
  %55 = icmp slt i32 %51, %54
  br i1 %55, label %56, label %58

56:                                               ; preds = %50
  %57 = load i32, ptr %14, align 4, !tbaa !12
  br label %62

58:                                               ; preds = %50
  %59 = load ptr, ptr %9, align 8, !tbaa !35
  %60 = getelementptr inbounds nuw %struct.u_scanf_spec_info, ptr %59, i32 0, i32 0
  %61 = load i32, ptr %60, align 4, !tbaa !38
  br label %62

62:                                               ; preds = %58, %56
  %63 = phi i32 [ %57, %56 ], [ %61, %58 ]
  store i32 %63, ptr %14, align 4, !tbaa !12
  br label %64

64:                                               ; preds = %62, %6
  %65 = load ptr, ptr %8, align 8, !tbaa !3
  %66 = getelementptr inbounds nuw %struct.UFILE, ptr %65, i32 0, i32 3
  %67 = getelementptr inbounds nuw %struct.u_localized_string, ptr %66, i32 0, i32 3
  %68 = call ptr @u_locbund_getNumberFormat_77(ptr noundef %67, i32 noundef 1)
  store ptr %68, ptr %16, align 8, !tbaa !64
  %69 = load ptr, ptr %16, align 8, !tbaa !64
  %70 = icmp eq ptr %69, null
  br i1 %70, label %71, label %72

71:                                               ; preds = %64
  store i32 0, ptr %7, align 4
  store i32 1, ptr %23, align 4
  br label %161

72:                                               ; preds = %64
  %73 = load ptr, ptr %16, align 8, !tbaa !64
  %74 = call ptr @unum_clone_77(ptr noundef %73, ptr noundef %21)
  store ptr %74, ptr %17, align 8, !tbaa !64
  %75 = load i32, ptr %21, align 4, !tbaa !54
  %76 = call noundef signext i8 @_ZL9U_FAILURE10UErrorCode(i32 noundef %75)
  %77 = icmp ne i8 %76, 0
  br i1 %77, label %78, label %79

78:                                               ; preds = %72
  store i32 0, ptr %7, align 4
  store i32 1, ptr %23, align 4
  br label %161

79:                                               ; preds = %72
  %80 = load ptr, ptr %9, align 8, !tbaa !35
  %81 = getelementptr inbounds nuw %struct.u_scanf_spec_info, ptr %80, i32 0, i32 1
  %82 = load i16, ptr %81, align 4, !tbaa !39
  %83 = zext i16 %82 to i32
  %84 = icmp eq i32 %83, 100
  br i1 %84, label %97, label %85

85:                                               ; preds = %79
  %86 = load ptr, ptr %9, align 8, !tbaa !35
  %87 = getelementptr inbounds nuw %struct.u_scanf_spec_info, ptr %86, i32 0, i32 1
  %88 = load i16, ptr %87, align 4, !tbaa !39
  %89 = zext i16 %88 to i32
  %90 = icmp eq i32 %89, 105
  br i1 %90, label %97, label %91

91:                                               ; preds = %85
  %92 = load ptr, ptr %9, align 8, !tbaa !35
  %93 = getelementptr inbounds nuw %struct.u_scanf_spec_info, ptr %92, i32 0, i32 1
  %94 = load i16, ptr %93, align 4, !tbaa !39
  %95 = zext i16 %94 to i32
  %96 = icmp eq i32 %95, 117
  br i1 %96, label %97, label %98

97:                                               ; preds = %91, %85, %79
  store i32 1, ptr %20, align 4, !tbaa !12
  br label %98

98:                                               ; preds = %97, %91
  %99 = load ptr, ptr %17, align 8, !tbaa !64
  %100 = load i32, ptr %20, align 4, !tbaa !12
  call void @unum_setAttribute_77(ptr noundef %99, i32 noundef 0, i32 noundef %100)
  %101 = load ptr, ptr %8, align 8, !tbaa !3
  %102 = load ptr, ptr %17, align 8, !tbaa !64
  %103 = call noundef i32 @_ZL34u_scanf_skip_leading_positive_signP5UFILEPPvP10UErrorCode(ptr noundef %101, ptr noundef %102, ptr noundef %21)
  %104 = load i32, ptr %19, align 4, !tbaa !12
  %105 = add nsw i32 %104, %103
  store i32 %105, ptr %19, align 4, !tbaa !12
  %106 = load ptr, ptr %17, align 8, !tbaa !64
  %107 = load ptr, ptr %8, align 8, !tbaa !3
  %108 = getelementptr inbounds nuw %struct.UFILE, ptr %107, i32 0, i32 3
  %109 = getelementptr inbounds nuw %struct.u_localized_string, ptr %108, i32 0, i32 0
  %110 = load ptr, ptr %109, align 8, !tbaa !63
  %111 = load i32, ptr %14, align 4, !tbaa !12
  %112 = call i64 @unum_parseInt64_77(ptr noundef %106, ptr noundef %110, i32 noundef %111, ptr noundef %18, ptr noundef %21)
  store i64 %112, ptr %22, align 8, !tbaa !74
  %113 = load ptr, ptr %9, align 8, !tbaa !35
  %114 = getelementptr inbounds nuw %struct.u_scanf_spec_info, ptr %113, i32 0, i32 3
  %115 = load i8, ptr %114, align 4, !tbaa !41
  %116 = icmp ne i8 %115, 0
  br i1 %116, label %142, label %117

117:                                              ; preds = %98
  %118 = load ptr, ptr %9, align 8, !tbaa !35
  %119 = getelementptr inbounds nuw %struct.u_scanf_spec_info, ptr %118, i32 0, i32 5
  %120 = load i8, ptr %119, align 2, !tbaa !43
  %121 = icmp ne i8 %120, 0
  br i1 %121, label %122, label %127

122:                                              ; preds = %117
  %123 = load i64, ptr %22, align 8, !tbaa !74
  %124 = and i64 65535, %123
  %125 = trunc i64 %124 to i16
  %126 = load ptr, ptr %15, align 8, !tbaa !30
  store i16 %125, ptr %126, align 2, !tbaa !21
  br label %141

127:                                              ; preds = %117
  %128 = load ptr, ptr %9, align 8, !tbaa !35
  %129 = getelementptr inbounds nuw %struct.u_scanf_spec_info, ptr %128, i32 0, i32 7
  %130 = load i8, ptr %129, align 4, !tbaa !45
  %131 = icmp ne i8 %130, 0
  br i1 %131, label %132, label %135

132:                                              ; preds = %127
  %133 = load i64, ptr %22, align 8, !tbaa !74
  %134 = load ptr, ptr %15, align 8, !tbaa !30
  store i64 %133, ptr %134, align 8, !tbaa !74
  br label %140

135:                                              ; preds = %127
  %136 = load i64, ptr %22, align 8, !tbaa !74
  %137 = and i64 4294967295, %136
  %138 = trunc i64 %137 to i32
  %139 = load ptr, ptr %15, align 8, !tbaa !30
  store i32 %138, ptr %139, align 4, !tbaa !12
  br label %140

140:                                              ; preds = %135, %132
  br label %141

141:                                              ; preds = %140, %122
  br label %142

142:                                              ; preds = %141, %98
  %143 = load i32, ptr %18, align 4, !tbaa !12
  %144 = load ptr, ptr %8, align 8, !tbaa !3
  %145 = getelementptr inbounds nuw %struct.UFILE, ptr %144, i32 0, i32 3
  %146 = getelementptr inbounds nuw %struct.u_localized_string, ptr %145, i32 0, i32 0
  %147 = load ptr, ptr %146, align 8, !tbaa !63
  %148 = sext i32 %143 to i64
  %149 = getelementptr inbounds i16, ptr %147, i64 %148
  store ptr %149, ptr %146, align 8, !tbaa !63
  %150 = load ptr, ptr %17, align 8, !tbaa !64
  call void @unum_close_77(ptr noundef %150)
  %151 = load ptr, ptr %9, align 8, !tbaa !35
  %152 = getelementptr inbounds nuw %struct.u_scanf_spec_info, ptr %151, i32 0, i32 3
  %153 = load i8, ptr %152, align 4, !tbaa !41
  %154 = icmp ne i8 %153, 0
  %155 = xor i1 %154, true
  %156 = zext i1 %155 to i32
  %157 = load ptr, ptr %13, align 8, !tbaa !52
  store i32 %156, ptr %157, align 4, !tbaa !12
  %158 = load i32, ptr %18, align 4, !tbaa !12
  %159 = load i32, ptr %19, align 4, !tbaa !12
  %160 = add nsw i32 %158, %159
  store i32 %160, ptr %7, align 4
  store i32 1, ptr %23, align 4
  br label %161

161:                                              ; preds = %142, %78, %71
  call void @llvm.lifetime.end.p0(i64 8, ptr %22) #5
  call void @llvm.lifetime.end.p0(i64 4, ptr %21) #5
  call void @llvm.lifetime.end.p0(i64 4, ptr %20) #5
  call void @llvm.lifetime.end.p0(i64 4, ptr %19) #5
  call void @llvm.lifetime.end.p0(i64 4, ptr %18) #5
  call void @llvm.lifetime.end.p0(i64 8, ptr %17) #5
  call void @llvm.lifetime.end.p0(i64 8, ptr %16) #5
  call void @llvm.lifetime.end.p0(i64 8, ptr %15) #5
  call void @llvm.lifetime.end.p0(i64 4, ptr %14) #5
  %162 = load i32, ptr %7, align 4
  ret i32 %162
}