; Function Attrs: mustprogress uwtable
define internal noundef i32 @_ZL23u_scanf_integer_handlerP5UFILEP17u_scanf_spec_infoP9ufmt_argsPKDsPiS7_(ptr noundef %0, ptr noundef readonly captures(none) %1, ptr noundef readonly captures(none) %2, ptr readnone captures(none) %3, ptr readnone captures(none) %4, ptr noundef writeonly captures(none) %5) #0 {
  %7 = alloca i16, align 2
  %8 = alloca i32, align 4
  %9 = alloca i32, align 4
  %10 = load ptr, ptr %2, align 8, !tbaa !33
  call void @llvm.lifetime.start.p0(i64 4, ptr nonnull %8) #6
  store i32 0, ptr %8, align 4, !tbaa !3
  call void @llvm.lifetime.start.p0(i64 4, ptr nonnull %9) #6
  store i32 0, ptr %9, align 4, !tbaa !36
  %11 = getelementptr inbounds nuw i8, ptr %1, i64 6
  %12 = load i16, ptr %11, align 2, !tbaa !16
  call void @llvm.lifetime.start.p0(i64 2, ptr nonnull %7) #6
  br label %13

13:                                               ; preds = %.critedge2.i, %6
  %.0.i = phi i32 [ 0, %6 ], [ %21, %.critedge2.i ]
  %14 = call signext i8 @ufile_getch_77(ptr noundef %0, ptr noundef nonnull %7)
  switch i8 %14, label %.critedge.i [
    i8 1, label %15
    i8 0, label %_ZL23u_scanf_skip_leading_wsP5UFILEDs.exit
  ]

15:                                               ; preds = %13
  %16 = load i16, ptr %7, align 2, !tbaa !7
  %17 = icmp eq i16 %16, %12
  br i1 %17, label %.critedge2.i, label %18

18:                                               ; preds = %15
  %19 = zext i16 %16 to i32
  %20 = call signext i8 @u_isWhitespace_77(i32 noundef %19)
  %.not.i = icmp eq i8 %20, 0
  br i1 %.not.i, label %.critedge.i, label %.critedge2.i

.critedge2.i:                                     ; preds = %18, %15
  %21 = add nuw nsw i32 %.0.i, 1
  br label %13, !llvm.loop !38

.critedge.i:                                      ; preds = %18, %13
  %22 = load i16, ptr %7, align 2, !tbaa !7
  %23 = zext i16 %22 to i32
  %24 = call i32 @u_fungetc_77(i32 noundef %23, ptr noundef %0)
  br label %_ZL23u_scanf_skip_leading_wsP5UFILEDs.exit

_ZL23u_scanf_skip_leading_wsP5UFILEDs.exit:       ; preds = %13, %.critedge.i
  call void @llvm.lifetime.end.p0(i64 2, ptr nonnull %7) #6
  call void @_Z26ufile_fill_uchar_buffer_77P5UFILE(ptr noundef %0)
  %25 = getelementptr inbounds nuw i8, ptr %0, i64 24
  %26 = getelementptr inbounds nuw i8, ptr %0, i64 32
  %27 = load ptr, ptr %26, align 8, !tbaa !39
  %28 = load ptr, ptr %25, align 8, !tbaa !47
  %29 = ptrtoint ptr %27 to i64
  %30 = ptrtoint ptr %28 to i64
  %31 = sub i64 %29, %30
  %32 = lshr exact i64 %31, 1
  %33 = trunc i64 %32 to i32
  %34 = load i32, ptr %1, align 4, !tbaa !14
  %.not = icmp eq i32 %34, -1
  %. = call i32 @llvm.smin.i32(i32 %34, i32 %33)
  %.040 = select i1 %.not, i32 %33, i32 %.
  %35 = getelementptr inbounds nuw i8, ptr %0, i64 48
  %36 = call ptr @u_locbund_getNumberFormat_77(ptr noundef nonnull %35, i32 noundef 1)
  %37 = icmp eq ptr %36, null
  br i1 %37, label %73, label %38

38:                                               ; preds = %_ZL23u_scanf_skip_leading_wsP5UFILEDs.exit
  %39 = call ptr @unum_clone_77(ptr noundef nonnull %36, ptr noundef nonnull %9)
  %40 = load i32, ptr %9, align 4, !tbaa !36
  %41 = icmp slt i32 %40, 1
  br i1 %41, label %42, label %73

42:                                               ; preds = %38
  %43 = getelementptr inbounds nuw i8, ptr %1, i64 4
  %44 = load i16, ptr %43, align 4, !tbaa !15
  switch i16 %44, label %46 [
    i16 100, label %45
    i16 105, label %45
    i16 117, label %45
  ]

45:                                               ; preds = %42, %42, %42
  br label %46

46:                                               ; preds = %42, %45
  %.039 = phi i32 [ 1, %45 ], [ 0, %42 ]
  call void @unum_setAttribute_77(ptr noundef %39, i32 noundef 0, i32 noundef %.039)
  %.val = load i32, ptr %9, align 4, !tbaa !36
  %47 = call fastcc noundef i32 @_ZL34u_scanf_skip_leading_positive_signP5UFILEPPvP10UErrorCode(ptr noundef nonnull %0, ptr noundef %39, i32 %.val)
  %48 = add nsw i32 %47, %.0.i
  %49 = load ptr, ptr %25, align 8, !tbaa !47
  %50 = call i64 @unum_parseInt64_77(ptr noundef %39, ptr noundef %49, i32 noundef %.040, ptr noundef nonnull %8, ptr noundef nonnull %9)
  %51 = getelementptr inbounds nuw i8, ptr %1, i64 8
  %52 = load i8, ptr %51, align 4, !tbaa !19
  %.not46 = icmp eq i8 %52, 0
  br i1 %.not46, label %53, label %64

53:                                               ; preds = %46
  %54 = getelementptr inbounds nuw i8, ptr %1, i64 10
  %55 = load i8, ptr %54, align 2, !tbaa !22
  %.not47 = icmp eq i8 %55, 0
  br i1 %.not47, label %58, label %56

56:                                               ; preds = %53
  %57 = trunc i64 %50 to i16
  store i16 %57, ptr %10, align 2, !tbaa !56
  br label %64

58:                                               ; preds = %53
  %59 = getelementptr inbounds nuw i8, ptr %1, i64 12
  %60 = load i8, ptr %59, align 4, !tbaa !23
  %.not48 = icmp eq i8 %60, 0
  br i1 %.not48, label %62, label %61

61:                                               ; preds = %58
  store i64 %50, ptr %10, align 8, !tbaa !58
  br label %64

62:                                               ; preds = %58
  %63 = trunc i64 %50 to i32
  store i32 %63, ptr %10, align 4, !tbaa !3
  br label %64

64:                                               ; preds = %56, %62, %61, %46
  %65 = load i32, ptr %8, align 4, !tbaa !3
  %66 = load ptr, ptr %25, align 8, !tbaa !47
  %67 = sext i32 %65 to i64
  %68 = getelementptr inbounds i16, ptr %66, i64 %67
  store ptr %68, ptr %25, align 8, !tbaa !47
  call void @unum_close_77(ptr noundef %39)
  %69 = load i8, ptr %51, align 4, !tbaa !19
  %.not49 = icmp eq i8 %69, 0
  %70 = zext i1 %.not49 to i32
  store i32 %70, ptr %5, align 4, !tbaa !3
  %71 = load i32, ptr %8, align 4, !tbaa !3
  %72 = add nsw i32 %48, %71
  br label %73

73:                                               ; preds = %38, %_ZL23u_scanf_skip_leading_wsP5UFILEDs.exit, %64
  %.0 = phi i32 [ %72, %64 ], [ 0, %_ZL23u_scanf_skip_leading_wsP5UFILEDs.exit ], [ 0, %38 ]
  call void @llvm.lifetime.end.p0(i64 4, ptr nonnull %9) #6
  call void @llvm.lifetime.end.p0(i64 4, ptr nonnull %8) #6
  ret i32 %.0
}